target datalayout = "e-m:e-p270:32:32-p271:32:32-p272:64:64-i64:64-i128:128-f80:128-n8:16:32:64-S128"
target triple = "x86_64-pc-linux-gnu"

%struct.fns = type { ptr, ptr }
%struct.vars = type { ptr, ptr, ptr, i32, i32, i32, i32, i32, i32, i32, ptr, i64, [10 x ptr], ptr, ptr, i16, ptr, ptr, ptr, ptr, i32, ptr, ptr, ptr, i32, i64 }
%struct.pg_regex_t = type { i32, i64, i64, i32, ptr, i32, ptr, ptr }
%struct.nfa = type { ptr, ptr, ptr, ptr, i32, ptr, ptr, ptr, ptr, ptr, ptr, i64, i64, ptr, [2 x i16], [2 x i16], i32, i32, i32, ptr, ptr }
%struct.arc = type { i32, i16, ptr, ptr, ptr, ptr, ptr, ptr, ptr, ptr }
%struct.state = type { i32, i8, i32, i32, ptr, ptr, ptr, ptr, ptr }

; Function Attrs: nounwind uwtable
define internal void @markcanreach(ptr noundef %0, ptr noundef %1, ptr noundef %2, ptr noundef %3) #0 {
  %5 = alloca ptr, align 8
  %6 = alloca ptr, align 8
  %7 = alloca ptr, align 8
  %8 = alloca ptr, align 8
  %9 = alloca ptr, align 8
  %10 = alloca i32, align 4
  store ptr %0, ptr %5, align 8
  store ptr %1, ptr %6, align 8
  store ptr %2, ptr %7, align 8
  store ptr %3, ptr %8, align 8
  call void @llvm.lifetime.start.p0(i64 8, ptr %9) #12
  %11 = load ptr, ptr %5, align 8
  %12 = getelementptr inbounds nuw %struct.nfa, ptr %11, i32 0, i32 19
  %13 = load ptr, ptr %12, align 8
  %14 = getelementptr inbounds nuw %struct.vars, ptr %13, i32 0, i32 0
  %15 = load ptr, ptr %14, align 8
  %16 = getelementptr inbounds nuw %struct.pg_regex_t, ptr %15, i32 0, i32 7
  %17 = load ptr, ptr %16, align 8
  %18 = getelementptr inbounds nuw %struct.fns, ptr %17, i32 0, i32 1
  %19 = load ptr, ptr %18, align 8
  %20 = call i32 %19()
  %21 = icmp ne i32 %20, 0
  br i1 %21, label %22, label %46

22:                                               ; preds = %4
  %23 = load ptr, ptr %5, align 8
  %24 = getelementptr inbounds nuw %struct.nfa, ptr %23, i32 0, i32 19
  %25 = load ptr, ptr %24, align 8
  %26 = getelementptr inbounds nuw %struct.vars, ptr %25, i32 0, i32 6
  store i32 101, ptr %26, align 4
  %27 = load ptr, ptr %5, align 8
  %28 = getelementptr inbounds nuw %struct.nfa, ptr %27, i32 0, i32 19
  %29 = load ptr, ptr %28, align 8
  %30 = getelementptr inbounds nuw %struct.vars, ptr %29, i32 0, i32 3
  %31 = load i32, ptr %30, align 8
  %32 = icmp ne i32 %31, 0
  br i1 %32, label %33, label %39

33:                                               ; preds = %22
  %34 = load ptr, ptr %5, align 8
  %35 = getelementptr inbounds nuw %struct.nfa, ptr %34, i32 0, i32 19
  %36 = load ptr, ptr %35, align 8
  %37 = getelementptr inbounds nuw %struct.vars, ptr %36, i32 0, i32 3
  %38 = load i32, ptr %37, align 8
  br label %40

39:                                               ; preds = %22
  br label %40

40:                                               ; preds = %39, %33
  %41 = phi i32 [ %38, %33 ], [ 19, %39 ]
  %42 = load ptr, ptr %5, align 8
  %43 = getelementptr inbounds nuw %struct.nfa, ptr %42, i32 0, i32 19
  %44 = load ptr, ptr %43, align 8
  %45 = getelementptr inbounds nuw %struct.vars, ptr %44, i32 0, i32 3
  store i32 %41, ptr %45, align 8
  store i32 1, ptr %10, align 4
  br label %75

46:                                               ; preds = %4
  %47 = load ptr, ptr %6, align 8
  %48 = getelementptr inbounds nuw %struct.state, ptr %47, i32 0, i32 6
  %49 = load ptr, ptr %48, align 8
  %50 = load ptr, ptr %7, align 8
  %51 = icmp ne ptr %49, %50
  br i1 %51, label %52, label %53

52:                                               ; preds = %46
  store i32 1, ptr %10, align 4
  br label %75

53:                                               ; preds = %46
  %54 = load ptr, ptr %8, align 8
  %55 = load ptr, ptr %6, align 8
  %56 = getelementptr inbounds nuw %struct.state, ptr %55, i32 0, i32 6
  store ptr %54, ptr %56, align 8
  %57 = load ptr, ptr %6, align 8
  %58 = getelementptr inbounds nuw %struct.state, ptr %57, i32 0, i32 4
  %59 = load ptr, ptr %58, align 8
  store ptr %59, ptr %9, align 8
  br label %60

60:                                               ; preds = %70, %53
  %61 = load ptr, ptr %9, align 8
  %62 = icmp ne ptr %61, null
  br i1 %62, label %63, label %74

63:                                               ; preds = %60
  %64 = load ptr, ptr %5, align 8
  %65 = load ptr, ptr %9, align 8
  %66 = getelementptr inbounds nuw %struct.arc, ptr %65, i32 0, i32 2
  %67 = load ptr, ptr %66, align 8
  %68 = load ptr, ptr %7, align 8
  %69 = load ptr, ptr %8, align 8
  call void @markcanreach(ptr noundef %64, ptr noundef %67, ptr noundef %68, ptr noundef %69)
  br label %70

70:                                               ; preds = %63
  %71 = load ptr, ptr %9, align 8
  %72 = getelementptr inbounds nuw %struct.arc, ptr %71, i32 0, i32 6
  %73 = load ptr, ptr %72, align 8
  store ptr %73, ptr %9, align 8
  br label %60, !llvm.loop !127

74:                                               ; preds = %60
  store i32 0, ptr %10, align 4
  br label %75

75:                                               ; preds = %74, %52, %40
  call void @llvm.lifetime.end.p0(i64 8, ptr %9) #12
  %76 = load i32, ptr %10, align 4
  switch i32 %76, label %78 [
    i32 0, label %77
    i32 1, label %77
  ]

77:                                               ; preds = %75, %75
  ret void

78:                                               ; preds = %75
  unreachable
}