; Function Attrs: nounwind uwtable
define internal fastcc void @markcanreach(ptr noundef readonly captures(none) %0, ptr noundef captures(none) %1, ptr noundef captures(address) %2, ptr noundef %3) unnamed_addr #0 {
  %5 = getelementptr inbounds nuw i8, ptr %0, i64 136
  %6 = load ptr, ptr %5, align 8
  %7 = load ptr, ptr %6, align 8
  %8 = getelementptr inbounds nuw i8, ptr %7, i64 56
  %9 = load ptr, ptr %8, align 8
  %10 = getelementptr inbounds nuw i8, ptr %9, i64 8
  %11 = load ptr, ptr %10, align 8
  %12 = tail call i32 %11() #20
  %.not = icmp eq i32 %12, 0
  br i1 %.not, label %19, label %13

13:                                               ; preds = %4
  %14 = load ptr, ptr %5, align 8
  %15 = getelementptr inbounds nuw i8, ptr %14, i64 36
  store i32 101, ptr %15, align 4
  %16 = load ptr, ptr %5, align 8
  %17 = getelementptr inbounds nuw i8, ptr %16, i64 24
  %18 = load i32, ptr %17, align 8
  %.not20 = icmp eq i32 %18, 0
  %spec.select = select i1 %.not20, i32 19, i32 %18
  store i32 %spec.select, ptr %17, align 8
  br label %.loopexit

19:                                               ; preds = %4
  %20 = getelementptr inbounds nuw i8, ptr %1, i64 32
  %21 = load ptr, ptr %20, align 8
  %.not18 = icmp eq ptr %21, %2
  br i1 %.not18, label %22, label %.loopexit

22:                                               ; preds = %19
  store ptr %3, ptr %20, align 8
  %23 = getelementptr inbounds nuw i8, ptr %1, i64 16
  %.021 = load ptr, ptr %23, align 8
  %.not1922 = icmp eq ptr %.021, null
  br i1 %.not1922, label %.loopexit, label %.lr.ph

.lr.ph:                                           ; preds = %22, %.lr.ph
  %.023 = phi ptr [ %.0, %.lr.ph ], [ %.021, %22 ]
  %24 = getelementptr inbounds nuw i8, ptr %.023, i64 8
  %25 = load ptr, ptr %24, align 8
  tail call fastcc void @markcanreach(ptr noundef %0, ptr noundef %25, ptr noundef %2, ptr noundef %3)
  %26 = getelementptr inbounds nuw i8, ptr %.023, i64 40
  %.0 = load ptr, ptr %26, align 8
  %.not19 = icmp eq ptr %.0, null
  br i1 %.not19, label %.loopexit, label %.lr.ph, !llvm.loop !148

.loopexit:                                        ; preds = %.lr.ph, %22, %19, %13
  ret void
}